; ModuleID = '35/467.c'
source_filename = "35/467.c"
target datalayout = "e-m:e-p270:32:32-p271:32:32-p272:64:64-i64:64-f80:128-n8:16:32:64-S128"
target triple = "x86_64-pc-linux-gnu"

@.str = private unnamed_addr constant [6 x i8] c"%d,%d\00", align 1
@.str.1 = private unnamed_addr constant [3 x i8] c"%d\00", align 1
@.str.2 = private unnamed_addr constant [7 x i8] c"%d+%d\0A\00", align 1
@.str.3 = private unnamed_addr constant [4 x i8] c"No\0A\00", align 1

; Function Attrs: noinline nounwind uwtable
define dso_local i32 @main() #0 {
  %1 = alloca i32, align 4
  %2 = alloca i32, align 4
  %3 = alloca i32, align 4
  %4 = alloca i32, align 4
  %5 = alloca i32, align 4
  %6 = alloca i32, align 4
  %7 = alloca i32, align 4
  %8 = alloca i32, align 4
  %9 = alloca i32**, align 8
  %10 = alloca i32*, align 8
  %11 = alloca i32*, align 8
  store i32 0, i32* %1, align 4
  store i32 1, i32* %4, align 4
  store i32 -1, i32* %5, align 4
  store i32 -1, i32* %6, align 4
  %12 = call i32 (i8*, ...) @__isoc99_scanf(i8* getelementptr inbounds ([6 x i8], [6 x i8]* @.str, i64 0, i64 0), i32* %2, i32* %3)
  %13 = load i32, i32* %2, align 4
  %14 = sext i32 %13 to i64
  %15 = mul i64 8, %14
  %16 = call noalias i8* @malloc(i64 %15) #3
  %17 = bitcast i8* %16 to i32**
  store i32** %17, i32*** %9, align 8
  store i32 0, i32* %7, align 4
  br label %18

18:                                               ; preds = %32, %0
  %19 = load i32, i32* %7, align 4
  %20 = load i32, i32* %2, align 4
  %21 = icmp slt i32 %19, %20
  br i1 %21, label %22, label %35

22:                                               ; preds = %18
  %23 = load i32, i32* %3, align 4
  %24 = sext i32 %23 to i64
  %25 = mul i64 4, %24
  %26 = call noalias i8* @malloc(i64 %25) #3
  %27 = bitcast i8* %26 to i32*
  %28 = load i32**, i32*** %9, align 8
  %29 = load i32, i32* %7, align 4
  %30 = sext i32 %29 to i64
  %31 = getelementptr inbounds i32*, i32** %28, i64 %30
  store i32* %27, i32** %31, align 8
  br label %32

32:                                               ; preds = %22
  %33 = load i32, i32* %7, align 4
  %34 = add nsw i32 %33, 1
  store i32 %34, i32* %7, align 4
  br label %18

35:                                               ; preds = %18
  %36 = load i32, i32* %2, align 4
  %37 = sext i32 %36 to i64
  %38 = mul i64 4, %37
  %39 = call noalias i8* @malloc(i64 %38) #3
  %40 = bitcast i8* %39 to i32*
  store i32* %40, i32** %10, align 8
  %41 = load i32, i32* %2, align 4
  %42 = sext i32 %41 to i64
  %43 = mul i64 4, %42
  %44 = call noalias i8* @malloc(i64 %43) #3
  %45 = bitcast i8* %44 to i32*
  store i32* %45, i32** %11, align 8
  store i32 0, i32* %7, align 4
  br label %46

46:                                               ; preds = %59, %35
  %47 = load i32, i32* %7, align 4
  %48 = load i32, i32* %2, align 4
  %49 = icmp slt i32 %47, %48
  br i1 %49, label %50, label %62

50:                                               ; preds = %46
  %51 = load i32*, i32** %10, align 8
  %52 = load i32, i32* %7, align 4
  %53 = sext i32 %52 to i64
  %54 = getelementptr inbounds i32, i32* %51, i64 %53
  store i32 0, i32* %54, align 4
  %55 = load i32*, i32** %11, align 8
  %56 = load i32, i32* %7, align 4
  %57 = sext i32 %56 to i64
  %58 = getelementptr inbounds i32, i32* %55, i64 %57
  store i32 0, i32* %58, align 4
  br label %59

59:                                               ; preds = %50
  %60 = load i32, i32* %7, align 4
  %61 = add nsw i32 %60, 1
  store i32 %61, i32* %7, align 4
  br label %46

62:                                               ; preds = %46
  store i32 0, i32* %7, align 4
  br label %63

63:                                               ; preds = %121, %62
  %64 = load i32, i32* %7, align 4
  %65 = load i32, i32* %2, align 4
  %66 = icmp slt i32 %64, %65
  br i1 %66, label %67, label %124

67:                                               ; preds = %63
  store i32 0, i32* %8, align 4
  br label %68

68:                                               ; preds = %117, %67
  %69 = load i32, i32* %8, align 4
  %70 = load i32, i32* %3, align 4
  %71 = icmp slt i32 %69, %70
  br i1 %71, label %72, label %120

72:                                               ; preds = %68
  %73 = load i32**, i32*** %9, align 8
  %74 = load i32, i32* %7, align 4
  %75 = sext i32 %74 to i64
  %76 = getelementptr inbounds i32*, i32** %73, i64 %75
  %77 = load i32*, i32** %76, align 8
  %78 = load i32, i32* %8, align 4
  %79 = sext i32 %78 to i64
  %80 = getelementptr inbounds i32, i32* %77, i64 %79
  %81 = call i32 (i8*, ...) @__isoc99_scanf(i8* getelementptr inbounds ([3 x i8], [3 x i8]* @.str.1, i64 0, i64 0), i32* %80)
  %82 = load i32*, i32** %10, align 8
  %83 = load i32, i32* %7, align 4
  %84 = sext i32 %83 to i64
  %85 = getelementptr inbounds i32, i32* %82, i64 %84
  %86 = load i32, i32* %85, align 4
  %87 = load i32**, i32*** %9, align 8
  %88 = load i32, i32* %7, align 4
  %89 = sext i32 %88 to i64
  %90 = getelementptr inbounds i32*, i32** %87, i64 %89
  %91 = load i32*, i32** %90, align 8
  %92 = load i32, i32* %8, align 4
  %93 = sext i32 %92 to i64
  %94 = getelementptr inbounds i32, i32* %91, i64 %93
  %95 = load i32, i32* %94, align 4
  %96 = icmp slt i32 %86, %95
  br i1 %96, label %97, label %116

97:                                               ; preds = %72
  %98 = load i32**, i32*** %9, align 8
  %99 = load i32, i32* %7, align 4
  %100 = sext i32 %99 to i64
  %101 = getelementptr inbounds i32*, i32** %98, i64 %100
  %102 = load i32*, i32** %101, align 8
  %103 = load i32, i32* %8, align 4
  %104 = sext i32 %103 to i64
  %105 = getelementptr inbounds i32, i32* %102, i64 %104
  %106 = load i32, i32* %105, align 4
  %107 = load i32*, i32** %10, align 8
  %108 = load i32, i32* %7, align 4
  %109 = sext i32 %108 to i64
  %110 = getelementptr inbounds i32, i32* %107, i64 %109
  store i32 %106, i32* %110, align 4
  %111 = load i32, i32* %8, align 4
  %112 = load i32*, i32** %11, align 8
  %113 = load i32, i32* %7, align 4
  %114 = sext i32 %113 to i64
  %115 = getelementptr inbounds i32, i32* %112, i64 %114
  store i32 %111, i32* %115, align 4
  br label %116

116:                                              ; preds = %97, %72
  br label %117

117:                                              ; preds = %116
  %118 = load i32, i32* %8, align 4
  %119 = add nsw i32 %118, 1
  store i32 %119, i32* %8, align 4
  br label %68

120:                                              ; preds = %68
  br label %121

121:                                              ; preds = %120
  %122 = load i32, i32* %7, align 4
  %123 = add nsw i32 %122, 1
  store i32 %123, i32* %7, align 4
  br label %63

124:                                              ; preds = %63
  store i32 0, i32* %7, align 4
  br label %125

125:                                              ; preds = %170, %124
  %126 = load i32, i32* %7, align 4
  %127 = load i32, i32* %2, align 4
  %128 = icmp slt i32 %126, %127
  br i1 %128, label %129, label %173

129:                                              ; preds = %125
  store i32 1, i32* %4, align 4
  store i32 0, i32* %8, align 4
  br label %130

130:                                              ; preds = %156, %129
  %131 = load i32, i32* %8, align 4
  %132 = load i32, i32* %2, align 4
  %133 = icmp slt i32 %131, %132
  br i1 %133, label %134, label %159

134:                                              ; preds = %130
  %135 = load i32*, i32** %10, align 8
  %136 = load i32, i32* %7, align 4
  %137 = sext i32 %136 to i64
  %138 = getelementptr inbounds i32, i32* %135, i64 %137
  %139 = load i32, i32* %138, align 4
  %140 = load i32**, i32*** %9, align 8
  %141 = load i32, i32* %8, align 4
  %142 = sext i32 %141 to i64
  %143 = getelementptr inbounds i32*, i32** %140, i64 %142
  %144 = load i32*, i32** %143, align 8
  %145 = load i32*, i32** %11, align 8
  %146 = load i32, i32* %7, align 4
  %147 = sext i32 %146 to i64
  %148 = getelementptr inbounds i32, i32* %145, i64 %147
  %149 = load i32, i32* %148, align 4
  %150 = sext i32 %149 to i64
  %151 = getelementptr inbounds i32, i32* %144, i64 %150
  %152 = load i32, i32* %151, align 4
  %153 = icmp sgt i32 %139, %152
  br i1 %153, label %154, label %155

154:                                              ; preds = %134
  store i32 0, i32* %4, align 4
  br label %159

155:                                              ; preds = %134
  br label %156

156:                                              ; preds = %155
  %157 = load i32, i32* %8, align 4
  %158 = add nsw i32 %157, 1
  store i32 %158, i32* %8, align 4
  br label %130

159:                                              ; preds = %154, %130
  %160 = load i32, i32* %4, align 4
  %161 = icmp ne i32 %160, 0
  br i1 %161, label %162, label %169

162:                                              ; preds = %159
  %163 = load i32, i32* %7, align 4
  store i32 %163, i32* %5, align 4
  %164 = load i32*, i32** %11, align 8
  %165 = load i32, i32* %7, align 4
  %166 = sext i32 %165 to i64
  %167 = getelementptr inbounds i32, i32* %164, i64 %166
  %168 = load i32, i32* %167, align 4
  store i32 %168, i32* %6, align 4
  br label %173

169:                                              ; preds = %159
  br label %170

170:                                              ; preds = %169
  %171 = load i32, i32* %7, align 4
  %172 = add nsw i32 %171, 1
  store i32 %172, i32* %7, align 4
  br label %125

173:                                              ; preds = %162, %125
  %174 = load i32, i32* %5, align 4
  %175 = icmp ne i32 %174, -1
  br i1 %175, label %179, label %176

176:                                              ; preds = %173
  %177 = load i32, i32* %6, align 4
  %178 = icmp ne i32 %177, -1
  br i1 %178, label %179, label %183

179:                                              ; preds = %176, %173
  %180 = load i32, i32* %5, align 4
  %181 = load i32, i32* %6, align 4
  %182 = call i32 (i8*, ...) @printf(i8* getelementptr inbounds ([7 x i8], [7 x i8]* @.str.2, i64 0, i64 0), i32 %180, i32 %181)
  br label %185

183:                                              ; preds = %176
  %184 = call i32 (i8*, ...) @printf(i8* getelementptr inbounds ([4 x i8], [4 x i8]* @.str.3, i64 0, i64 0))
  br label %185

185:                                              ; preds = %183, %179
  %186 = load i32**, i32*** %9, align 8
  %187 = load i32*, i32** %186, align 8
  %188 = bitcast i32* %187 to i8*
  call void @free(i8* %188) #3
  %189 = load i32*, i32** %10, align 8
  %190 = bitcast i32* %189 to i8*
  call void @free(i8* %190) #3
  %191 = load i32*, i32** %11, align 8
  %192 = bitcast i32* %191 to i8*
  call void @free(i8* %192) #3
  ret i32 0
}

declare dso_local i32 @__isoc99_scanf(i8*, ...) #1

; Function Attrs: nounwind
declare dso_local noalias i8* @malloc(i64) #2

declare dso_local i32 @printf(i8*, ...) #1

; Function Attrs: nounwind
declare dso_local void @free(i8*) #2


!llvm.module.flags = !{!0}
!llvm.ident = !{!1}

!0 = !{i32 1, !"wchar_size", i32 4}
!1 = !{!"clang version 10.0.0-4ubuntu1 "}
